target datalayout = "e-m:e-p270:32:32-p271:32:32-p272:64:64-i64:64-i128:128-f80:128-n8:16:32:64-S128"
target triple = "x86_64-pc-linux-gnu"

@.str.429 = private unnamed_addr constant [49 x i8] c"decodehexstr: Can't allocate memory for decoded\0A\00", align 1
@.str.430 = private unnamed_addr constant [18 x i8] c"{WILDCARD_IGNORE}\00", align 1
@.str.431 = private unnamed_addr constant [28 x i8] c"{WILDCARD_NIBBLE_HIGH:0x%x}\00", align 1
@.str.432 = private unnamed_addr constant [27 x i8] c"{WILDCARD_NIBBLE_LOW:0x%x}\00", align 1
@.str.433 = private unnamed_addr constant [42 x i8] c"decodehexstr: Unknown wildcard (0x%x@%u)\0A\00", align 1

; Function Attrs: nounwind uwtable
define internal ptr @decodehexstr(ptr noundef %0, ptr noundef %1) #0 {
  %3 = alloca ptr, align 8
  %4 = alloca ptr, align 8
  %5 = alloca ptr, align 8
  %6 = alloca ptr, align 8
  %7 = alloca ptr, align 8
  %8 = alloca i32, align 4
  %9 = alloca i32, align 4
  %10 = alloca i32, align 4
  %11 = alloca i32, align 4
  store ptr %0, ptr %4, align 8
  store ptr %1, ptr %5, align 8
  store i32 0, ptr %9, align 4
  store i32 0, ptr %10, align 4
  %12 = load ptr, ptr %4, align 8
  %13 = call i64 @strlen(ptr noundef %12) #14
  %14 = udiv i64 %13, 2
  %15 = trunc i64 %14 to i32
  store i32 %15, ptr %11, align 4
  %16 = load ptr, ptr %4, align 8
  %17 = call ptr @cli_hex2ui(ptr noundef %16)
  store ptr %17, ptr %6, align 8
  %18 = load ptr, ptr %6, align 8
  %19 = icmp ne ptr %18, null
  br i1 %19, label %21, label %20

20:                                               ; preds = %2
  store ptr null, ptr %3, align 8
  br label %152

21:                                               ; preds = %2
  store i32 0, ptr %8, align 4
  br label %22

22:                                               ; preds = %39, %21
  %23 = load i32, ptr %8, align 4
  %24 = load i32, ptr %11, align 4
  %25 = icmp ult i32 %23, %24
  br i1 %25, label %26, label %42

26:                                               ; preds = %22
  %27 = load ptr, ptr %6, align 8
  %28 = load i32, ptr %8, align 4
  %29 = zext i32 %28 to i64
  %30 = getelementptr inbounds i16, ptr %27, i64 %29
  %31 = load i16, ptr %30, align 2
  %32 = zext i16 %31 to i32
  %33 = and i32 %32, 3840
  %34 = icmp ne i32 %33, 0
  br i1 %34, label %35, label %38

35:                                               ; preds = %26
  %36 = load i32, ptr %10, align 4
  %37 = add i32 %36, 1
  store i32 %37, ptr %10, align 4
  br label %38

38:                                               ; preds = %35, %26
  br label %39

39:                                               ; preds = %38
  %40 = load i32, ptr %8, align 4
  %41 = add i32 %40, 1
  store i32 %41, ptr %8, align 4
  br label %22

42:                                               ; preds = %22
  %43 = load i32, ptr %11, align 4
  %44 = add i32 %43, 1
  %45 = load i32, ptr %10, align 4
  %46 = mul i32 %45, 32
  %47 = add i32 %44, %46
  %48 = zext i32 %47 to i64
  %49 = call noalias ptr @calloc(i64 noundef %48, i64 noundef 1) #16
  store ptr %49, ptr %7, align 8
  %50 = load ptr, ptr %7, align 8
  %51 = icmp ne ptr %50, null
  br i1 %51, label %54, label %52

52:                                               ; preds = %42
  %53 = load ptr, ptr %6, align 8
  call void @free(ptr noundef %53) #11
  call void (i32, ptr, ...) @mprintf(i32 noundef 5, ptr noundef @.str.429)
  store ptr null, ptr %3, align 8
  br label %152

54:                                               ; preds = %42
  store i32 0, ptr %8, align 4
  br label %55

55:                                               ; preds = %140, %54
  %56 = load i32, ptr %8, align 4
  %57 = load i32, ptr %11, align 4
  %58 = icmp ult i32 %56, %57
  br i1 %58, label %59, label %143

59:                                               ; preds = %55
  %60 = load ptr, ptr %6, align 8
  %61 = load i32, ptr %8, align 4
  %62 = zext i32 %61 to i64
  %63 = getelementptr inbounds i16, ptr %60, i64 %62
  %64 = load i16, ptr %63, align 2
  %65 = zext i16 %64 to i32
  %66 = and i32 %65, 3840
  %67 = icmp ne i32 %66, 0
  br i1 %67, label %68, label %126

68:                                               ; preds = %59
  %69 = load ptr, ptr %6, align 8
  %70 = load i32, ptr %8, align 4
  %71 = zext i32 %70 to i64
  %72 = getelementptr inbounds i16, ptr %69, i64 %71
  %73 = load i16, ptr %72, align 2
  %74 = zext i16 %73 to i32
  %75 = and i32 %74, 3840
  switch i32 %75, label %114 [
    i32 256, label %76
    i32 768, label %84
    i32 1024, label %99
  ]

76:                                               ; preds = %68
  %77 = load ptr, ptr %7, align 8
  %78 = load i32, ptr %9, align 4
  %79 = zext i32 %78 to i64
  %80 = getelementptr inbounds i8, ptr %77, i64 %79
  %81 = call i32 (ptr, ptr, ...) @sprintf(ptr noundef %80, ptr noundef @.str.430) #11
  %82 = load i32, ptr %9, align 4
  %83 = add i32 %82, %81
  store i32 %83, ptr %9, align 4
  br label %125

84:                                               ; preds = %68
  %85 = load ptr, ptr %7, align 8
  %86 = load i32, ptr %9, align 4
  %87 = zext i32 %86 to i64
  %88 = getelementptr inbounds i8, ptr %85, i64 %87
  %89 = load ptr, ptr %6, align 8
  %90 = load i32, ptr %8, align 4
  %91 = zext i32 %90 to i64
  %92 = getelementptr inbounds i16, ptr %89, i64 %91
  %93 = load i16, ptr %92, align 2
  %94 = zext i16 %93 to i32
  %95 = and i32 %94, 240
  %96 = call i32 (ptr, ptr, ...) @sprintf(ptr noundef %88, ptr noundef @.str.431, i32 noundef %95) #11
  %97 = load i32, ptr %9, align 4
  %98 = add i32 %97, %96
  store i32 %98, ptr %9, align 4
  br label %125

99:                                               ; preds = %68
  %100 = load ptr, ptr %7, align 8
  %101 = load i32, ptr %9, align 4
  %102 = zext i32 %101 to i64
  %103 = getelementptr inbounds i8, ptr %100, i64 %102
  %104 = load ptr, ptr %6, align 8
  %105 = load i32, ptr %8, align 4
  %106 = zext i32 %105 to i64
  %107 = getelementptr inbounds i16, ptr %104, i64 %106
  %108 = load i16, ptr %107, align 2
  %109 = zext i16 %108 to i32
  %110 = and i32 %109, 15
  %111 = call i32 (ptr, ptr, ...) @sprintf(ptr noundef %103, ptr noundef @.str.432, i32 noundef %110) #11
  %112 = load i32, ptr %9, align 4
  %113 = add i32 %112, %111
  store i32 %113, ptr %9, align 4
  br label %125

114:                                              ; preds = %68
  %115 = load ptr, ptr %6, align 8
  %116 = load i32, ptr %8, align 4
  %117 = zext i32 %116 to i64
  %118 = getelementptr inbounds i16, ptr %115, i64 %117
  %119 = load i16, ptr %118, align 2
  %120 = zext i16 %119 to i32
  %121 = and i32 %120, 3840
  %122 = load i32, ptr %8, align 4
  call void (i32, ptr, ...) @mprintf(i32 noundef 5, ptr noundef @.str.433, i32 noundef %121, i32 noundef %122)
  %123 = load ptr, ptr %7, align 8
  call void @free(ptr noundef %123) #11
  %124 = load ptr, ptr %6, align 8
  call void @free(ptr noundef %124) #11
  store ptr null, ptr %3, align 8
  br label %152

125:                                              ; preds = %99, %84, %76
  br label %139

126:                                              ; preds = %59
  %127 = load ptr, ptr %6, align 8
  %128 = load i32, ptr %8, align 4
  %129 = zext i32 %128 to i64
  %130 = getelementptr inbounds i16, ptr %127, i64 %129
  %131 = load i16, ptr %130, align 2
  %132 = trunc i16 %131 to i8
  %133 = load ptr, ptr %7, align 8
  %134 = load i32, ptr %9, align 4
  %135 = zext i32 %134 to i64
  %136 = getelementptr inbounds i8, ptr %133, i64 %135
  store i8 %132, ptr %136, align 1
  %137 = load i32, ptr %9, align 4
  %138 = add i32 %137, 1
  store i32 %138, ptr %9, align 4
  br label %139

139:                                              ; preds = %126, %125
  br label %140

140:                                              ; preds = %139
  %141 = load i32, ptr %8, align 4
  %142 = add i32 %141, 1
  store i32 %142, ptr %8, align 4
  br label %55

143:                                              ; preds = %55
  %144 = load ptr, ptr %5, align 8
  %145 = icmp ne ptr %144, null
  br i1 %145, label %146, label %149

146:                                              ; preds = %143
  %147 = load i32, ptr %9, align 4
  %148 = load ptr, ptr %5, align 8
  store i32 %147, ptr %148, align 4
  br label %149

149:                                              ; preds = %146, %143
  %150 = load ptr, ptr %6, align 8
  call void @free(ptr noundef %150) #11
  %151 = load ptr, ptr %7, align 8
  store ptr %151, ptr %3, align 8
  br label %152

152:                                              ; preds = %149, %114, %52, %20
  %153 = load ptr, ptr %3, align 8
  ret ptr %153
}