; Function Attrs: nounwind uwtable
define internal fastcc noalias noundef ptr @decodehexstr(ptr noundef %0, ptr noundef writeonly %1) unnamed_addr #0 {
  %3 = tail call i64 @strlen(ptr noundef nonnull dereferenceable(1) %0) #31
  %4 = lshr i64 %3, 1
  %5 = trunc i64 %4 to i32
  %6 = tail call ptr @cli_hex2ui(ptr noundef %0) #25
  %.not = icmp eq ptr %6, null
  br i1 %.not, label %44, label %.preheader62

.preheader62:                                     ; preds = %2
  %.not72 = icmp eq i32 %5, 0
  br i1 %.not72, label %._crit_edge, label %.lr.ph.preheader

.lr.ph.preheader:                                 ; preds = %.preheader62
  %wide.trip.count = and i64 %4, 4294967295
  br label %.lr.ph

.lr.ph:                                           ; preds = %.lr.ph.preheader, %.lr.ph
  %indvars.iv = phi i64 [ 0, %.lr.ph.preheader ], [ %indvars.iv.next, %.lr.ph ]
  %.04866 = phi i32 [ 0, %.lr.ph.preheader ], [ %spec.select, %.lr.ph ]
  %7 = getelementptr inbounds i16, ptr %6, i64 %indvars.iv
  %8 = load i16, ptr %7, align 2
  %9 = and i16 %8, 3840
  %.not61 = icmp ne i16 %9, 0
  %10 = zext i1 %.not61 to i32
  %spec.select = add i32 %.04866, %10
  %indvars.iv.next = add nuw nsw i64 %indvars.iv, 1
  %exitcond.not = icmp eq i64 %indvars.iv.next, %wide.trip.count
  br i1 %exitcond.not, label %._crit_edge.loopexit, label %.lr.ph

._crit_edge.loopexit:                             ; preds = %.lr.ph
  %11 = shl i32 %spec.select, 5
  br label %._crit_edge

._crit_edge:                                      ; preds = %._crit_edge.loopexit, %.preheader62
  %.048.lcssa = phi i32 [ 0, %.preheader62 ], [ %11, %._crit_edge.loopexit ]
  %12 = add i32 %5, 1
  %13 = add i32 %12, %.048.lcssa
  %14 = zext i32 %13 to i64
  %15 = tail call noalias ptr @calloc(i64 noundef %14, i64 noundef 1) #28
  %.not58 = icmp eq ptr %15, null
  br i1 %.not58, label %16, label %.preheader

.preheader:                                       ; preds = %._crit_edge
  br i1 %.not72, label %._crit_edge70, label %.lr.ph69.preheader

.lr.ph69.preheader:                               ; preds = %.preheader
  %wide.trip.count80 = and i64 %4, 4294967295
  br label %.lr.ph69

16:                                               ; preds = %._crit_edge
  tail call void @free(ptr noundef nonnull %6) #25
  tail call void (i32, ptr, ...) @mprintf(i32 noundef 5, ptr noundef nonnull @.str.429) #25
  br label %44

.lr.ph69:                                         ; preds = %.lr.ph69.preheader, %41
  %indvars.iv77 = phi i64 [ 0, %.lr.ph69.preheader ], [ %indvars.iv.next78, %41 ]
  %.04968 = phi i32 [ 0, %.lr.ph69.preheader ], [ %.150, %41 ]
  %17 = getelementptr inbounds i16, ptr %6, i64 %indvars.iv77
  %18 = load i16, ptr %17, align 2
  %19 = zext i16 %18 to i32
  %20 = and i32 %19, 3840
  %21 = lshr exact i32 %20, 8
  switch i32 %21, label %35 [
    i32 0, label %37
    i32 1, label %22
    i32 3, label %25
    i32 4, label %30
  ]

22:                                               ; preds = %.lr.ph69
  %23 = zext i32 %.04968 to i64
  %24 = getelementptr inbounds i8, ptr %15, i64 %23
  tail call void @llvm.memcpy.p0.p0.i64(ptr noundef nonnull align 1 dereferenceable(18) %24, ptr noundef nonnull align 1 dereferenceable(18) @.str.430, i64 18, i1 false)
  br label %41

25:                                               ; preds = %.lr.ph69
  %26 = zext i32 %.04968 to i64
  %27 = getelementptr inbounds i8, ptr %15, i64 %26
  %28 = and i32 %19, 240
  %29 = tail call i32 (ptr, ptr, ...) @sprintf(ptr noundef nonnull dereferenceable(1) %27, ptr noundef nonnull dereferenceable(1) @.str.431, i32 noundef %28) #25
  br label %41

30:                                               ; preds = %.lr.ph69
  %31 = zext i32 %.04968 to i64
  %32 = getelementptr inbounds i8, ptr %15, i64 %31
  %33 = and i32 %19, 15
  %34 = tail call i32 (ptr, ptr, ...) @sprintf(ptr noundef nonnull dereferenceable(1) %32, ptr noundef nonnull dereferenceable(1) @.str.432, i32 noundef %33) #25
  br label %41

35:                                               ; preds = %.lr.ph69
  %36 = trunc nuw i64 %indvars.iv77 to i32
  tail call void (i32, ptr, ...) @mprintf(i32 noundef 5, ptr noundef nonnull @.str.433, i32 noundef %20, i32 noundef %36) #25
  tail call void @free(ptr noundef %15) #25
  tail call void @free(ptr noundef nonnull %6) #25
  br label %44

37:                                               ; preds = %.lr.ph69
  %38 = trunc i16 %18 to i8
  %39 = zext i32 %.04968 to i64
  %40 = getelementptr inbounds i8, ptr %15, i64 %39
  store i8 %38, ptr %40, align 1
  br label %41

41:                                               ; preds = %37, %30, %25, %22
  %.pn = phi i32 [ %34, %30 ], [ %29, %25 ], [ 17, %22 ], [ 1, %37 ]
  %.150 = add i32 %.pn, %.04968
  %indvars.iv.next78 = add nuw nsw i64 %indvars.iv77, 1
  %exitcond81.not = icmp eq i64 %indvars.iv.next78, %wide.trip.count80
  br i1 %exitcond81.not, label %._crit_edge70, label %.lr.ph69

._crit_edge70:                                    ; preds = %41, %.preheader
  %.049.lcssa = phi i32 [ 0, %.preheader ], [ %.150, %41 ]
  %.not59 = icmp eq ptr %1, null
  br i1 %.not59, label %43, label %42

42:                                               ; preds = %._crit_edge70
  store i32 %.049.lcssa, ptr %1, align 4
  br label %43

43:                                               ; preds = %42, %._crit_edge70
  tail call void @free(ptr noundef nonnull %6) #25
  br label %44

44:                                               ; preds = %2, %43, %35, %16
  %.0 = phi ptr [ null, %35 ], [ %15, %43 ], [ null, %16 ], [ null, %2 ]
  ret ptr %.0
}